; ModuleID = '362.c'
source_filename = "362.c"
target datalayout = "e-m:e-p270:32:32-p271:32:32-p272:64:64-i64:64-f80:128-n8:16:32:64-S128"
target triple = "x86_64-pc-linux-gnu"

@.str = private unnamed_addr constant [16 x i8] c"%lf%lf%lf%lf%lf\00", align 1
@.str.1 = private unnamed_addr constant [6 x i8] c"%.4lf\00", align 1
@.str.2 = private unnamed_addr constant [14 x i8] c"Invalid input\00", align 1

; Function Attrs: noinline nounwind uwtable
define dso_local i32 @main() #0 {
  %1 = alloca i32, align 4
  %2 = alloca double, align 8
  %3 = alloca double, align 8
  %4 = alloca double, align 8
  %5 = alloca double, align 8
  %6 = alloca double, align 8
  %7 = alloca double, align 8
  store i32 0, i32* %1, align 4
  %8 = call i32 (i8*, ...) @__isoc99_scanf(i8* getelementptr inbounds ([16 x i8], [16 x i8]* @.str, i64 0, i64 0), double* %2, double* %3, double* %4, double* %5, double* %6)
  %9 = load double, double* %7, align 8
  %10 = load double, double* %2, align 8
  %11 = fsub double %9, %10
  %12 = load double, double* %7, align 8
  %13 = load double, double* %3, align 8
  %14 = fsub double %12, %13
  %15 = fmul double %11, %14
  %16 = load double, double* %7, align 8
  %17 = load double, double* %4, align 8
  %18 = fsub double %16, %17
  %19 = fmul double %15, %18
  %20 = load double, double* %7, align 8
  %21 = load double, double* %5, align 8
  %22 = fsub double %20, %21
  %23 = fmul double %19, %22
  %24 = load double, double* %2, align 8
  %25 = load double, double* %3, align 8
  %26 = fmul double %24, %25
  %27 = load double, double* %4, align 8
  %28 = fmul double %26, %27
  %29 = load double, double* %5, align 8
  %30 = fmul double %28, %29
  %31 = load double, double* %6, align 8
  %32 = fmul double %31, 1.000000e+02
  %33 = fdiv double %32, 3.600000e+02
  %34 = call double @cos(double %33) #3
  %35 = fmul double %30, %34
  %36 = load double, double* %6, align 8
  %37 = fmul double %36, 1.000000e+02
  %38 = fdiv double %37, 3.600000e+02
  %39 = call double @cos(double %38) #3
  %40 = fmul double %35, %39
  %41 = fsub double %23, %40
  %42 = call double @sqrt(double %41) #3
  store double %42, double* %7, align 8
  %43 = load double, double* %7, align 8
  %44 = fcmp oge double %43, 0.000000e+00
  br i1 %44, label %45, label %48

45:                                               ; preds = %0
  %46 = load double, double* %7, align 8
  %47 = call i32 (i8*, ...) @printf(i8* getelementptr inbounds ([6 x i8], [6 x i8]* @.str.1, i64 0, i64 0), double %46)
  br label %50

48:                                               ; preds = %0
  %49 = call i32 (i8*, ...) @printf(i8* getelementptr inbounds ([14 x i8], [14 x i8]* @.str.2, i64 0, i64 0))
  br label %50

50:                                               ; preds = %48, %45
  ret i32 0
}

declare dso_local i32 @__isoc99_scanf(i8*, ...) #1

; Function Attrs: nounwind
declare dso_local double @sqrt(double) #2

; Function Attrs: nounwind
declare dso_local double @cos(double) #2

declare dso_local i32 @printf(i8*, ...) #1


!llvm.module.flags = !{!0}
!llvm.ident = !{!1}

!0 = !{i32 1, !"wchar_size", i32 4}
!1 = !{!"clang version 10.0.0-4ubuntu1 "}
